; Function Attrs: nofree norecurse nosync nounwind memory(read, inaccessiblemem: none) uwtable
define i32 @Fra_ClassesCountLits(ptr noundef readonly captures(none) %0) local_unnamed_addr #10 {
  %2 = getelementptr inbounds nuw i8, ptr %0, i64 24
  %3 = load ptr, ptr %2, align 8, !tbaa !29
  %4 = getelementptr i8, ptr %3, i64 4
  %.val10 = load i32, ptr %4, align 4, !tbaa !23
  %5 = getelementptr inbounds nuw i8, ptr %0, i64 16
  %6 = load ptr, ptr %5, align 8, !tbaa !28
  %7 = getelementptr i8, ptr %6, i64 4
  %.val = load i32, ptr %7, align 4, !tbaa !23
  %8 = icmp sgt i32 %.val, 0
  br i1 %8, label %.lr.ph, label %.critedge

.lr.ph:                                           ; preds = %1
  %9 = getelementptr i8, ptr %6, i64 8
  %.val11 = load ptr, ptr %9, align 8, !tbaa !27
  %wide.trip.count = zext nneg i32 %.val to i64
  br label %10

10:                                               ; preds = %.lr.ph, %Fra_ClassCount.exit
  %indvars.iv = phi i64 [ 0, %.lr.ph ], [ %indvars.iv.next, %Fra_ClassCount.exit ]
  %.013 = phi i32 [ %.val10, %.lr.ph ], [ %18, %Fra_ClassCount.exit ]
  %11 = getelementptr inbounds nuw ptr, ptr %.val11, i64 %indvars.iv
  %12 = load ptr, ptr %11, align 8, !tbaa !41
  br label %13

13:                                               ; preds = %13, %10
  %indvars.iv.i = phi i64 [ %indvars.iv.next.i, %13 ], [ 0, %10 ]
  %14 = getelementptr inbounds nuw ptr, ptr %12, i64 %indvars.iv.i
  %15 = load ptr, ptr %14, align 8, !tbaa !42
  %.not.i = icmp eq ptr %15, null
  %indvars.iv.next.i = add nuw nsw i64 %indvars.iv.i, 1
  br i1 %.not.i, label %Fra_ClassCount.exit, label %13, !llvm.loop !47

Fra_ClassCount.exit:                              ; preds = %13
  %16 = trunc nuw nsw i64 %indvars.iv.i to i32
  %17 = add i32 %.013, -1
  %18 = add i32 %17, %16
  %indvars.iv.next = add nuw nsw i64 %indvars.iv, 1
  %exitcond.not = icmp eq i64 %indvars.iv.next, %wide.trip.count
  br i1 %exitcond.not, label %.critedge, label %10, !llvm.loop !48

.critedge:                                        ; preds = %Fra_ClassCount.exit, %1
  %.0.lcssa = phi i32 [ %.val10, %1 ], [ %18, %Fra_ClassCount.exit ]
  ret i32 %.0.lcssa
}